target datalayout = "e-m:e-p270:32:32-p271:32:32-p272:64:64-i64:64-i128:128-f80:128-n8:16:32:64-S128"
target triple = "x86_64-pc-linux-gnu"

%struct.SDL_VideoDevice = type { ptr, ptr, ptr, ptr, ptr, ptr, ptr, ptr, ptr, ptr, ptr, ptr, ptr, ptr, ptr, ptr, ptr, ptr, ptr, ptr, ptr, ptr, ptr, ptr, ptr, ptr, ptr, ptr, ptr, ptr, ptr, ptr, ptr, ptr, ptr, ptr, ptr, ptr, ptr, ptr, ptr, ptr, ptr, ptr, ptr, ptr, ptr, ptr, ptr, ptr, ptr, ptr, ptr, ptr, ptr, ptr, ptr, ptr, ptr, ptr, ptr, ptr, ptr, ptr, ptr, ptr, ptr, ptr, ptr, ptr, ptr, ptr, ptr, ptr, ptr, ptr, ptr, ptr, ptr, ptr, ptr, ptr, ptr, ptr, ptr, ptr, ptr, ptr, ptr, ptr, ptr, ptr, ptr, ptr, ptr, ptr, ptr, i64, i8, i8, i8, ptr, i32, ptr, %struct.SDL_Rect, ptr, ptr, i32, ptr, ptr, ptr, ptr, i64, ptr, i8, i32, i32, %struct.anon, ptr, ptr, ptr, ptr, ptr, ptr, %struct.SDL_AtomicInt, %struct.SDL_AtomicInt, i8, %struct.anon.0, ptr, ptr, ptr, ptr, ptr }
%struct.SDL_Rect = type { i32, i32, i32, i32 }
%struct.anon = type { i32, i32, i32, i32, i32, i32, i32, i32, i32, i32, i32, i32, i32, i32, i32, i32, i32, i32, i32, i32, i32, i32, i32, i32, i32, i32, i32, i32, i32, [256 x i8], ptr }
%struct.SDL_AtomicInt = type { i32 }
%struct.anon.0 = type { ptr, ptr, i32, [256 x i8], ptr }
%struct.SDL_VideoData = type { ptr, ptr, i32, ptr, i64, i32, ptr, i32, i64, i64, %struct.X11_ClipboardData, %struct.X11_ClipboardData, ptr, i64, %struct.X11_SettingsData, i8, %struct.anon.1, [256 x i32], i8, i8, i8, i64, i8, %struct.SDL_Point, i32, ptr, i32, i8, i32, %struct.anon.2, i8, i64, ptr, ptr, i8, i8, i8 }
%struct.X11_ClipboardData = type { ptr, ptr, ptr, i64, i32 }
%struct.X11_SettingsData = type { ptr }
%struct.anon.1 = type { i64, i64, i64, i64, i64, i64, i64, i64, i64, i64, i64, i64, i64, i64, i64, i64, i64, i64, i64, i64, i64, i64, i64, i64, i64, i64, i64, i64, i64, i64, i64, i64, i64, i64, i64, i64, i64, i64, i64, i64, i64, i64, i64, i64, i64, i64, i64, i64, i64, i64, i64, i64, i64 }
%struct.SDL_Point = type { i32, i32 }
%struct.anon.2 = type { ptr, i32, i32, i32, i16, i32, i32 }
%struct.SDL_Window = type { i32, ptr, ptr, i32, i32, i32, i32, i32, i32, i32, i32, float, float, i32, i32, i64, i64, float, i8, i8, i32, i32, %struct.SDL_Rect, %struct.SDL_Rect, %struct.SDL_Rect, i8, i8, i8, %struct.SDL_DisplayMode, %struct.SDL_DisplayMode, %struct.SDL_HDROutputProperties, float, ptr, i8, i8, i8, i8, i8, i8, i8, i8, i8, i32, i32, i32, i32, %struct.SDL_Rect, i32, i8, %struct.SDL_Rect, i32, %struct.SDL_Rect, ptr, ptr, i32, float, i32, i32, ptr, ptr, ptr, ptr, ptr, ptr, ptr, ptr, ptr }
%struct.SDL_DisplayMode = type { i32, i32, i32, i32, float, float, i32, i32, ptr }
%struct.SDL_HDROutputProperties = type { float, float }
%struct.anon.4 = type { ptr, ptr, i32, i32, i32, i32, ptr, i64, i64, i64, i32, ptr, i32, i32, i32, i32, i32, ptr, i32, i32, ptr, ptr, i32, i64, i64, ptr, ptr, ptr, ptr, i32, ptr, ptr, ptr, i32, i32, ptr, i64, i64, i32, i32, ptr, ptr, i32, ptr }
%struct.Screen = type { ptr, ptr, i64, i32, i32, i32, i32, i32, ptr, i32, ptr, ptr, i64, i64, i64, i32, i32, i32, i32, i64 }
%struct.SDL_WindowData = type { ptr, i64, ptr, i64, i8, %struct.XShmSegmentInfo, ptr, ptr, ptr, i8, i32, i32, i32, i32, i8, i8, i8, i64, i32, i64, i8, %struct.SDL_Point, %struct.XConfigureEvent, %struct.XConfigureEvent, ptr, i64, i64, i64, i8, i64, ptr, i8, [4 x i64], %struct.SDL_Rect, i64, %struct._XSyncValue, i8, %struct.SDL_Rect, %struct.SDL_DisplayMode, i32, i32, i8, i8, i8, i8, i8, i8, i8, i8, i32, %struct.XPoint, ptr, ptr, i32, i32, i8 }
%struct.XShmSegmentInfo = type { i64, i32, ptr, i32 }
%struct.XConfigureEvent = type { i32, i64, i32, ptr, i64, i64, i32, i32, i32, i32, i32, i64, i32 }
%struct._XSyncValue = type { i32, i32 }
%struct.XPoint = type { i16, i16 }
%struct.XClientMessageEvent = type { i32, i64, i32, ptr, i64, i64, i32, %union.anon }
%union.anon = type { [5 x i64] }

@X11_XInternAtom = external global ptr, align 8
@X11_XFlush = external global ptr, align 8
@X11_XSync = external global ptr, align 8
@X11_XSendEvent = external global ptr, align 8
@.str.32 = private unnamed_addr constant [20 x i8] c"Invalid window data\00", align 1
@.str.34 = private unnamed_addr constant [28 x i8] c"_XWAYLAND_MAY_GRAB_KEYBOARD\00", align 1
@X11_XGrabKeyboard = external global ptr, align 8
@X11_XUngrabKeyboard = external global ptr, align 8

; Function Attrs: nounwind uwtable
define hidden zeroext i1 @X11_SetWindowKeyboardGrab(ptr noundef %0, ptr noundef %1, i1 noundef zeroext %2) #0 {
  %4 = alloca i1, align 1
  %5 = alloca ptr, align 8
  %6 = alloca ptr, align 8
  %7 = alloca i8, align 1
  %8 = alloca ptr, align 8
  %9 = alloca ptr, align 8
  %10 = alloca i32, align 4
  %11 = alloca i64, align 8
  %12 = alloca %struct.XClientMessageEvent, align 8
  store ptr %0, ptr %5, align 8
  store ptr %1, ptr %6, align 8
  %13 = zext i1 %2 to i8
  store i8 %13, ptr %7, align 1
  call void @llvm.lifetime.start.p0(i64 8, ptr %8) #7
  %14 = load ptr, ptr %6, align 8
  %15 = getelementptr inbounds nuw %struct.SDL_Window, ptr %14, i32 0, i32 59
  %16 = load ptr, ptr %15, align 8
  store ptr %16, ptr %8, align 8
  call void @llvm.lifetime.start.p0(i64 8, ptr %9) #7
  %17 = load ptr, ptr %8, align 8
  %18 = icmp ne ptr %17, null
  br i1 %18, label %21, label %19

19:                                               ; preds = %3
  %20 = call zeroext i1 (ptr, ...) @SDL_SetError_REAL(ptr noundef @.str.32)
  store i1 %20, ptr %4, align 1
  store i32 1, ptr %10, align 4
  br label %94

21:                                               ; preds = %3
  %22 = load ptr, ptr %8, align 8
  %23 = getelementptr inbounds nuw %struct.SDL_WindowData, ptr %22, i32 0, i32 24
  %24 = load ptr, ptr %23, align 8
  %25 = getelementptr inbounds nuw %struct.SDL_VideoData, ptr %24, i32 0, i32 0
  %26 = load ptr, ptr %25, align 8
  store ptr %26, ptr %9, align 8
  %27 = load i8, ptr %7, align 1, !range !5, !noundef !6
  %28 = trunc i8 %27 to i1
  br i1 %28, label %29, label %86

29:                                               ; preds = %21
  %30 = load ptr, ptr %6, align 8
  %31 = getelementptr inbounds nuw %struct.SDL_Window, ptr %30, i32 0, i32 15
  %32 = load i64, ptr %31, align 8
  %33 = and i64 %32, 8
  %34 = icmp ne i64 %33, 0
  br i1 %34, label %35, label %36

35:                                               ; preds = %29
  store i1 true, ptr %4, align 1
  store i32 1, ptr %10, align 4
  br label %94

36:                                               ; preds = %29
  %37 = load ptr, ptr %5, align 8
  %38 = getelementptr inbounds nuw %struct.SDL_VideoDevice, ptr %37, i32 0, i32 128
  %39 = load ptr, ptr %38, align 8
  %40 = getelementptr inbounds nuw %struct.SDL_VideoData, ptr %39, i32 0, i32 36
  %41 = load i8, ptr %40, align 2, !range !5, !noundef !6
  %42 = trunc i8 %41 to i1
  br i1 %42, label %43, label %79

43:                                               ; preds = %36
  call void @llvm.lifetime.start.p0(i64 8, ptr %11) #7
  %44 = load ptr, ptr @X11_XInternAtom, align 8
  %45 = load ptr, ptr %9, align 8
  %46 = call i64 %44(ptr noundef %45, ptr noundef @.str.34, i32 noundef 0)
  store i64 %46, ptr %11, align 8
  %47 = load i64, ptr %11, align 8
  %48 = icmp ne i64 %47, 0
  br i1 %48, label %49, label %78

49:                                               ; preds = %43
  call void @llvm.lifetime.start.p0(i64 96, ptr %12) #7
  %50 = getelementptr inbounds nuw %struct.XClientMessageEvent, ptr %12, i32 0, i32 0
  store i32 33, ptr %50, align 8
  %51 = load ptr, ptr %8, align 8
  %52 = getelementptr inbounds nuw %struct.SDL_WindowData, ptr %51, i32 0, i32 1
  %53 = load i64, ptr %52, align 8
  %54 = getelementptr inbounds nuw %struct.XClientMessageEvent, ptr %12, i32 0, i32 4
  store i64 %53, ptr %54, align 8
  %55 = getelementptr inbounds nuw %struct.XClientMessageEvent, ptr %12, i32 0, i32 6
  store i32 32, ptr %55, align 8
  %56 = load i64, ptr %11, align 8
  %57 = getelementptr inbounds nuw %struct.XClientMessageEvent, ptr %12, i32 0, i32 5
  store i64 %56, ptr %57, align 8
  %58 = getelementptr inbounds nuw %struct.XClientMessageEvent, ptr %12, i32 0, i32 7
  %59 = getelementptr inbounds [5 x i64], ptr %58, i64 0, i64 0
  store i64 1, ptr %59, align 8
  %60 = getelementptr inbounds nuw %struct.XClientMessageEvent, ptr %12, i32 0, i32 7
  %61 = getelementptr inbounds [5 x i64], ptr %60, i64 0, i64 1
  store i64 0, ptr %61, align 8
  %62 = load ptr, ptr @X11_XSendEvent, align 8
  %63 = load ptr, ptr %9, align 8
  %64 = load ptr, ptr %9, align 8
  %65 = getelementptr inbounds nuw %struct.anon.4, ptr %64, i32 0, i32 35
  %66 = load ptr, ptr %65, align 8
  %67 = load ptr, ptr %9, align 8
  %68 = getelementptr inbounds nuw %struct.anon.4, ptr %67, i32 0, i32 33
  %69 = load i32, ptr %68, align 8
  %70 = sext i32 %69 to i64
  %71 = getelementptr inbounds %struct.Screen, ptr %66, i64 %70
  %72 = getelementptr inbounds nuw %struct.Screen, ptr %71, i32 0, i32 2
  %73 = load i64, ptr %72, align 8
  %74 = call i32 %62(ptr noundef %63, i64 noundef %73, i32 noundef 0, i64 noundef 1572864, ptr noundef %12)
  %75 = load ptr, ptr @X11_XFlush, align 8
  %76 = load ptr, ptr %9, align 8
  %77 = call i32 %75(ptr noundef %76)
  call void @llvm.lifetime.end.p0(i64 96, ptr %12) #7
  br label %78

78:                                               ; preds = %49, %43
  call void @llvm.lifetime.end.p0(i64 8, ptr %11) #7
  br label %79

79:                                               ; preds = %78, %36
  %80 = load ptr, ptr @X11_XGrabKeyboard, align 8
  %81 = load ptr, ptr %9, align 8
  %82 = load ptr, ptr %8, align 8
  %83 = getelementptr inbounds nuw %struct.SDL_WindowData, ptr %82, i32 0, i32 1
  %84 = load i64, ptr %83, align 8
  %85 = call i32 %80(ptr noundef %81, i64 noundef %84, i32 noundef 1, i32 noundef 1, i32 noundef 1, i64 noundef 0)
  br label %90

86:                                               ; preds = %21
  %87 = load ptr, ptr @X11_XUngrabKeyboard, align 8
  %88 = load ptr, ptr %9, align 8
  %89 = call i32 %87(ptr noundef %88, i64 noundef 0)
  br label %90

90:                                               ; preds = %86, %79
  %91 = load ptr, ptr @X11_XSync, align 8
  %92 = load ptr, ptr %9, align 8
  %93 = call i32 %91(ptr noundef %92, i32 noundef 0)
  store i1 true, ptr %4, align 1
  store i32 1, ptr %10, align 4
  br label %94

94:                                               ; preds = %90, %35, %19
  call void @llvm.lifetime.end.p0(i64 8, ptr %9) #7
  call void @llvm.lifetime.end.p0(i64 8, ptr %8) #7
  %95 = load i1, ptr %4, align 1
  ret i1 %95
}