; Function Attrs: nounwind uwtable
define hidden zeroext i1 @X11_SetWindowKeyboardGrab(ptr noundef readonly captures(none) %0, ptr noundef readonly captures(none) %1, i1 noundef zeroext %2) local_unnamed_addr #0 {
  %4 = alloca %struct.XClientMessageEvent, align 8
  %5 = getelementptr inbounds nuw i8, ptr %1, i64 392
  %6 = load ptr, ptr %5, align 8
  %.not = icmp eq ptr %6, null
  br i1 %.not, label %7, label %9

7:                                                ; preds = %3
  %8 = tail call zeroext i1 (ptr, ...) @SDL_SetError_REAL(ptr noundef nonnull @.str.32) #12
  br label %56

9:                                                ; preds = %3
  %10 = getelementptr inbounds nuw i8, ptr %6, i64 336
  %11 = load ptr, ptr %10, align 8
  %12 = load ptr, ptr %11, align 8
  br i1 %2, label %13, label %50

13:                                               ; preds = %9
  %14 = getelementptr inbounds nuw i8, ptr %1, i64 72
  %15 = load i64, ptr %14, align 8
  %16 = and i64 %15, 8
  %.not20 = icmp eq i64 %16, 0
  br i1 %.not20, label %17, label %56

17:                                               ; preds = %13
  %18 = getelementptr inbounds nuw i8, ptr %0, i64 1656
  %19 = load ptr, ptr %18, align 8
  %20 = getelementptr inbounds nuw i8, ptr %19, i64 1762
  %21 = load i8, ptr %20, align 2, !range !5, !noundef !6
  %22 = trunc nuw i8 %21 to i1
  br i1 %22, label %23, label %45

23:                                               ; preds = %17
  %24 = load ptr, ptr @X11_XInternAtom, align 8
  %25 = tail call i64 %24(ptr noundef %12, ptr noundef nonnull @.str.34, i32 noundef 0) #12
  %.not21 = icmp eq i64 %25, 0
  br i1 %.not21, label %45, label %26

26:                                               ; preds = %23
  call void @llvm.lifetime.start.p0(i64 96, ptr nonnull %4) #12
  store i32 33, ptr %4, align 8
  %27 = getelementptr inbounds nuw i8, ptr %6, i64 8
  %28 = load i64, ptr %27, align 8
  %29 = getelementptr inbounds nuw i8, ptr %4, i64 32
  store i64 %28, ptr %29, align 8
  %30 = getelementptr inbounds nuw i8, ptr %4, i64 48
  store i32 32, ptr %30, align 8
  %31 = getelementptr inbounds nuw i8, ptr %4, i64 40
  store i64 %25, ptr %31, align 8
  %32 = getelementptr inbounds nuw i8, ptr %4, i64 56
  store i64 1, ptr %32, align 8
  %33 = getelementptr inbounds nuw i8, ptr %4, i64 64
  store i64 0, ptr %33, align 8
  %34 = load ptr, ptr @X11_XSendEvent, align 8
  %35 = getelementptr inbounds nuw i8, ptr %12, i64 232
  %36 = load ptr, ptr %35, align 8
  %37 = getelementptr inbounds nuw i8, ptr %12, i64 224
  %38 = load i32, ptr %37, align 8
  %39 = sext i32 %38 to i64
  %40 = getelementptr inbounds %struct.Screen, ptr %36, i64 %39, i32 2
  %41 = load i64, ptr %40, align 8
  %42 = call i32 %34(ptr noundef %12, i64 noundef %41, i32 noundef 0, i64 noundef 1572864, ptr noundef nonnull %4) #12
  %43 = load ptr, ptr @X11_XFlush, align 8
  %44 = call i32 %43(ptr noundef %12) #12
  call void @llvm.lifetime.end.p0(i64 96, ptr nonnull %4) #12
  br label %45

45:                                               ; preds = %23, %26, %17
  %46 = load ptr, ptr @X11_XGrabKeyboard, align 8
  %47 = getelementptr inbounds nuw i8, ptr %6, i64 8
  %48 = load i64, ptr %47, align 8
  %49 = call i32 %46(ptr noundef %12, i64 noundef %48, i32 noundef 1, i32 noundef 1, i32 noundef 1, i64 noundef 0) #12
  br label %53

50:                                               ; preds = %9
  %51 = load ptr, ptr @X11_XUngrabKeyboard, align 8
  %52 = tail call i32 %51(ptr noundef %12, i64 noundef 0) #12
  br label %53

53:                                               ; preds = %50, %45
  %54 = load ptr, ptr @X11_XSync, align 8
  %55 = call i32 %54(ptr noundef %12, i32 noundef 0) #12
  br label %56

56:                                               ; preds = %13, %53, %7
  %.0 = phi i1 [ true, %53 ], [ %8, %7 ], [ true, %13 ]
  ret i1 %.0
}